target datalayout = "e-m:e-p270:32:32-p271:32:32-p272:64:64-i64:64-i128:128-f80:128-n8:16:32:64-S128"
target triple = "x86_64-pc-linux-gnu"

%struct.SANMVideoContext = type { ptr, %struct.GetByteContext, i32, i32, i32, i32, [256 x i32], [768 x i16], i64, i32, i32, i32, i32, i32, ptr, ptr, ptr, ptr, ptr, ptr, i32, i32, i32, i32, i32, ptr, i32, i32, i64, i64, [256 x i16], [4 x i16], [256 x [16 x i8]], [256 x [64 x i8]], [65536 x i8], [256 x i8], [2 x [256 x [16 x i8]]], i16 }
%struct.GetByteContext = type { ptr, ptr, ptr }

; Function Attrs: alwaysinline nounwind uwtable
define internal i32 @bytestream_get_byte(ptr noundef %0) #4 {
  %2 = alloca ptr, align 8
  store ptr %0, ptr %2, align 8, !tbaa !119
  %3 = load ptr, ptr %2, align 8, !tbaa !119
  %4 = load ptr, ptr %3, align 8, !tbaa !63
  %5 = getelementptr inbounds i8, ptr %4, i64 1
  store ptr %5, ptr %3, align 8, !tbaa !63
  %6 = load ptr, ptr %2, align 8, !tbaa !119
  %7 = load ptr, ptr %6, align 8, !tbaa !63
  %8 = getelementptr inbounds i8, ptr %7, i64 -1
  %9 = getelementptr inbounds i8, ptr %8, i64 0
  %10 = load i8, ptr %9, align 1, !tbaa !42
  %11 = zext i8 %10 to i32
  ret i32 %11
}

; Function Attrs: alwaysinline nounwind uwtable
define internal i32 @bytestream2_get_byteu(ptr noundef %0) #4 {
  %2 = alloca ptr, align 8
  store ptr %0, ptr %2, align 8, !tbaa !96
  %3 = load ptr, ptr %2, align 8, !tbaa !96
  %4 = getelementptr inbounds nuw %struct.GetByteContext, ptr %3, i32 0, i32 0
  %5 = call i32 @bytestream_get_byte(ptr noundef %4)
  ret i32 %5
}

; Function Attrs: alwaysinline nounwind uwtable
define internal i32 @bytestream2_get_byte(ptr noundef %0) #4 {
  %2 = alloca i32, align 4
  %3 = alloca ptr, align 8
  store ptr %0, ptr %3, align 8, !tbaa !96
  %4 = load ptr, ptr %3, align 8, !tbaa !96
  %5 = getelementptr inbounds nuw %struct.GetByteContext, ptr %4, i32 0, i32 1
  %6 = load ptr, ptr %5, align 8, !tbaa !100
  %7 = load ptr, ptr %3, align 8, !tbaa !96
  %8 = getelementptr inbounds nuw %struct.GetByteContext, ptr %7, i32 0, i32 0
  %9 = load ptr, ptr %8, align 8, !tbaa !98
  %10 = ptrtoint ptr %6 to i64
  %11 = ptrtoint ptr %9 to i64
  %12 = sub i64 %10, %11
  %13 = icmp slt i64 %12, 1
  br i1 %13, label %14, label %20

14:                                               ; preds = %1
  %15 = load ptr, ptr %3, align 8, !tbaa !96
  %16 = getelementptr inbounds nuw %struct.GetByteContext, ptr %15, i32 0, i32 1
  %17 = load ptr, ptr %16, align 8, !tbaa !100
  %18 = load ptr, ptr %3, align 8, !tbaa !96
  %19 = getelementptr inbounds nuw %struct.GetByteContext, ptr %18, i32 0, i32 0
  store ptr %17, ptr %19, align 8, !tbaa !98
  store i32 0, ptr %2, align 4
  br label %23

20:                                               ; preds = %1
  %21 = load ptr, ptr %3, align 8, !tbaa !96
  %22 = call i32 @bytestream2_get_byteu(ptr noundef %21)
  store i32 %22, ptr %2, align 4
  br label %23

23:                                               ; preds = %20, %14
  %24 = load i32, ptr %2, align 4
  ret i32 %24
}

; Function Attrs: nounwind uwtable
define internal void @codec47_comp1(ptr noundef %0, ptr noundef %1, i32 noundef %2, i32 noundef %3, i64 noundef %4) #1 {
  %6 = alloca ptr, align 8
  %7 = alloca ptr, align 8
  %8 = alloca i32, align 4
  %9 = alloca i32, align 4
  %10 = alloca i64, align 8
  %11 = alloca i8, align 1
  %12 = alloca ptr, align 8
  %13 = alloca ptr, align 8
  %14 = alloca i16, align 2
  %15 = alloca i32, align 4
  %16 = alloca i32, align 4
  store ptr %0, ptr %6, align 8, !tbaa !29
  store ptr %1, ptr %7, align 8, !tbaa !63
  store i32 %2, ptr %8, align 4, !tbaa !44
  store i32 %3, ptr %9, align 4, !tbaa !44
  store i64 %4, ptr %10, align 8, !tbaa !112
  call void @llvm.lifetime.start.p0(i64 1, ptr %11) #10
  call void @llvm.lifetime.start.p0(i64 8, ptr %12) #10
  call void @llvm.lifetime.start.p0(i64 8, ptr %13) #10
  %17 = load ptr, ptr %6, align 8, !tbaa !29
  %18 = getelementptr inbounds nuw %struct.SANMVideoContext, ptr %17, i32 0, i32 34
  %19 = getelementptr inbounds [65536 x i8], ptr %18, i64 0, i64 0
  store ptr %19, ptr %13, align 8, !tbaa !63
  call void @llvm.lifetime.start.p0(i64 2, ptr %14) #10
  call void @llvm.lifetime.start.p0(i64 4, ptr %15) #10
  call void @llvm.lifetime.start.p0(i64 4, ptr %16) #10
  %20 = load ptr, ptr %7, align 8, !tbaa !63
  %21 = load i64, ptr %10, align 8, !tbaa !112
  %22 = getelementptr inbounds i8, ptr %20, i64 %21
  store ptr %22, ptr %12, align 8, !tbaa !63
  store i32 0, ptr %15, align 4, !tbaa !44
  br label %23

23:                                               ; preds = %73, %5
  %24 = load i32, ptr %15, align 4, !tbaa !44
  %25 = load i32, ptr %9, align 4, !tbaa !44
  %26 = icmp slt i32 %24, %25
  br i1 %26, label %27, label %76

27:                                               ; preds = %23
  %28 = load ptr, ptr %6, align 8, !tbaa !29
  %29 = getelementptr inbounds nuw %struct.SANMVideoContext, ptr %28, i32 0, i32 1
  %30 = call i32 @bytestream2_get_byte(ptr noundef %29)
  %31 = trunc i32 %30 to i8
  store i8 %31, ptr %11, align 1, !tbaa !42
  %32 = load i8, ptr %11, align 1, !tbaa !42
  %33 = load ptr, ptr %12, align 8, !tbaa !63
  %34 = getelementptr inbounds nuw i8, ptr %33, i32 1
  store ptr %34, ptr %12, align 8, !tbaa !63
  store i8 %32, ptr %33, align 1, !tbaa !42
  %35 = load i8, ptr %11, align 1, !tbaa !42
  %36 = load ptr, ptr %12, align 8, !tbaa !63
  %37 = getelementptr inbounds nuw i8, ptr %36, i32 1
  store ptr %37, ptr %12, align 8, !tbaa !63
  store i8 %35, ptr %36, align 1, !tbaa !42
  %38 = load i8, ptr %11, align 1, !tbaa !42
  %39 = zext i8 %38 to i16
  store i16 %39, ptr %14, align 2, !tbaa !101
  store i32 2, ptr %16, align 4, !tbaa !44
  br label %40

40:                                               ; preds = %66, %27
  %41 = load i32, ptr %16, align 4, !tbaa !44
  %42 = load i32, ptr %8, align 4, !tbaa !44
  %43 = icmp slt i32 %41, %42
  br i1 %43, label %44, label %69

44:                                               ; preds = %40
  %45 = load ptr, ptr %6, align 8, !tbaa !29
  %46 = getelementptr inbounds nuw %struct.SANMVideoContext, ptr %45, i32 0, i32 1
  %47 = call i32 @bytestream2_get_byte(ptr noundef %46)
  %48 = trunc i32 %47 to i8
  store i8 %48, ptr %11, align 1, !tbaa !42
  %49 = load i16, ptr %14, align 2, !tbaa !101
  %50 = zext i16 %49 to i32
  %51 = shl i32 %50, 8
  %52 = load i8, ptr %11, align 1, !tbaa !42
  %53 = zext i8 %52 to i32
  %54 = or i32 %51, %53
  %55 = trunc i32 %54 to i16
  store i16 %55, ptr %14, align 2, !tbaa !101
  %56 = load ptr, ptr %13, align 8, !tbaa !63
  %57 = load i16, ptr %14, align 2, !tbaa !101
  %58 = zext i16 %57 to i64
  %59 = getelementptr inbounds nuw i8, ptr %56, i64 %58
  %60 = load i8, ptr %59, align 1, !tbaa !42
  %61 = load ptr, ptr %12, align 8, !tbaa !63
  %62 = getelementptr inbounds nuw i8, ptr %61, i32 1
  store ptr %62, ptr %12, align 8, !tbaa !63
  store i8 %60, ptr %61, align 1, !tbaa !42
  %63 = load i8, ptr %11, align 1, !tbaa !42
  %64 = load ptr, ptr %12, align 8, !tbaa !63
  %65 = getelementptr inbounds nuw i8, ptr %64, i32 1
  store ptr %65, ptr %12, align 8, !tbaa !63
  store i8 %63, ptr %64, align 1, !tbaa !42
  br label %66

66:                                               ; preds = %44
  %67 = load i32, ptr %16, align 4, !tbaa !44
  %68 = add nsw i32 %67, 2
  store i32 %68, ptr %16, align 4, !tbaa !44
  br label %40, !llvm.loop !176

69:                                               ; preds = %40
  %70 = load i64, ptr %10, align 8, !tbaa !112
  %71 = load ptr, ptr %12, align 8, !tbaa !63
  %72 = getelementptr inbounds i8, ptr %71, i64 %70
  store ptr %72, ptr %12, align 8, !tbaa !63
  br label %73

73:                                               ; preds = %69
  %74 = load i32, ptr %15, align 4, !tbaa !44
  %75 = add nsw i32 %74, 2
  store i32 %75, ptr %15, align 4, !tbaa !44
  br label %23, !llvm.loop !177

76:                                               ; preds = %23
  %77 = load ptr, ptr %7, align 8, !tbaa !63
  %78 = load ptr, ptr %7, align 8, !tbaa !63
  %79 = load i64, ptr %10, align 8, !tbaa !112
  %80 = getelementptr inbounds i8, ptr %78, i64 %79
  %81 = load i32, ptr %8, align 4, !tbaa !44
  %82 = sext i32 %81 to i64
  call void @llvm.memcpy.p0.p0.i64(ptr align 1 %77, ptr align 1 %80, i64 %82, i1 false)
  %83 = load ptr, ptr %7, align 8, !tbaa !63
  %84 = load i64, ptr %10, align 8, !tbaa !112
  %85 = getelementptr inbounds i8, ptr %83, i64 %84
  %86 = load i64, ptr %10, align 8, !tbaa !112
  %87 = getelementptr inbounds i8, ptr %85, i64 %86
  store ptr %87, ptr %12, align 8, !tbaa !63
  store i32 2, ptr %15, align 4, !tbaa !44
  br label %88

88:                                               ; preds = %127, %76
  %89 = load i32, ptr %15, align 4, !tbaa !44
  %90 = load i32, ptr %9, align 4, !tbaa !44
  %91 = sub nsw i32 %90, 1
  %92 = icmp slt i32 %89, %91
  br i1 %92, label %93, label %130

93:                                               ; preds = %88
  store i32 0, ptr %16, align 4, !tbaa !44
  br label %94

94:                                               ; preds = %120, %93
  %95 = load i32, ptr %16, align 4, !tbaa !44
  %96 = load i32, ptr %8, align 4, !tbaa !44
  %97 = icmp slt i32 %95, %96
  br i1 %97, label %98, label %123

98:                                               ; preds = %94
  %99 = load ptr, ptr %12, align 8, !tbaa !63
  %100 = load i64, ptr %10, align 8, !tbaa !112
  %101 = sub i64 0, %100
  %102 = getelementptr inbounds i8, ptr %99, i64 %101
  %103 = load i8, ptr %102, align 1, !tbaa !42
  %104 = zext i8 %103 to i32
  %105 = shl i32 %104, 8
  %106 = load ptr, ptr %12, align 8, !tbaa !63
  %107 = load i64, ptr %10, align 8, !tbaa !112
  %108 = getelementptr inbounds i8, ptr %106, i64 %107
  %109 = load i8, ptr %108, align 1, !tbaa !42
  %110 = zext i8 %109 to i32
  %111 = or i32 %105, %110
  %112 = trunc i32 %111 to i16
  store i16 %112, ptr %14, align 2, !tbaa !101
  %113 = load ptr, ptr %13, align 8, !tbaa !63
  %114 = load i16, ptr %14, align 2, !tbaa !101
  %115 = zext i16 %114 to i64
  %116 = getelementptr inbounds nuw i8, ptr %113, i64 %115
  %117 = load i8, ptr %116, align 1, !tbaa !42
  %118 = load ptr, ptr %12, align 8, !tbaa !63
  %119 = getelementptr inbounds nuw i8, ptr %118, i32 1
  store ptr %119, ptr %12, align 8, !tbaa !63
  store i8 %117, ptr %118, align 1, !tbaa !42
  br label %120

120:                                              ; preds = %98
  %121 = load i32, ptr %16, align 4, !tbaa !44
  %122 = add nsw i32 %121, 1
  store i32 %122, ptr %16, align 4, !tbaa !44
  br label %94, !llvm.loop !178

123:                                              ; preds = %94
  %124 = load i64, ptr %10, align 8, !tbaa !112
  %125 = load ptr, ptr %12, align 8, !tbaa !63
  %126 = getelementptr inbounds i8, ptr %125, i64 %124
  store ptr %126, ptr %12, align 8, !tbaa !63
  br label %127

127:                                              ; preds = %123
  %128 = load i32, ptr %15, align 4, !tbaa !44
  %129 = add nsw i32 %128, 2
  store i32 %129, ptr %15, align 4, !tbaa !44
  br label %88, !llvm.loop !179

130:                                              ; preds = %88
  call void @llvm.lifetime.end.p0(i64 4, ptr %16) #10
  call void @llvm.lifetime.end.p0(i64 4, ptr %15) #10
  call void @llvm.lifetime.end.p0(i64 2, ptr %14) #10
  call void @llvm.lifetime.end.p0(i64 8, ptr %13) #10
  call void @llvm.lifetime.end.p0(i64 8, ptr %12) #10
  call void @llvm.lifetime.end.p0(i64 1, ptr %11) #10
  ret void
}