; Function Attrs: nofree norecurse nosync nounwind memory(read, argmem: readwrite, inaccessiblemem: none) uwtable
define internal fastcc void @codec47_comp1(ptr noundef captures(none) %0, ptr noundef captures(none) %1, i32 noundef range(i32 0, 65536) %2, i32 noundef range(i32 0, 65536) %3, i64 noundef %4) unnamed_addr #8 {
  %6 = getelementptr inbounds nuw i8, ptr %0, i64 23744
  %7 = getelementptr inbounds i8, ptr %1, i64 %4
  %.not = icmp eq i32 %3, 0
  br i1 %.not, label %._crit_edge63.thread, label %.lr.ph62

._crit_edge63.thread:                             ; preds = %5
  %8 = zext nneg i32 %2 to i64
  tail call void @llvm.memcpy.p0.p0.i64(ptr align 1 %1, ptr align 1 %7, i64 %8, i1 false)
  br label %._crit_edge70

.lr.ph62:                                         ; preds = %5
  %9 = getelementptr inbounds nuw i8, ptr %0, i64 8
  %10 = getelementptr inbounds nuw i8, ptr %0, i64 16
  %11 = icmp samesign ugt i32 %2, 2
  br i1 %11, label %.lr.ph62.split.us, label %.lr.ph62.split

.lr.ph62.split.us:                                ; preds = %.lr.ph62, %._crit_edge.us
  %.04660.us = phi i32 [ %49, %._crit_edge.us ], [ 0, %.lr.ph62 ]
  %.04959.us = phi ptr [ %48, %._crit_edge.us ], [ %7, %.lr.ph62 ]
  %12 = load ptr, ptr %10, align 8, !tbaa !58
  %13 = load ptr, ptr %9, align 8, !tbaa !56
  %14 = ptrtoint ptr %12 to i64
  %15 = ptrtoint ptr %13 to i64
  %16 = sub i64 %14, %15
  %17 = icmp slt i64 %16, 1
  br i1 %17, label %22, label %18

18:                                               ; preds = %.lr.ph62.split.us
  %19 = getelementptr inbounds nuw i8, ptr %13, i64 1
  store ptr %19, ptr %9, align 8, !tbaa !60
  %20 = load i8, ptr %13, align 1, !tbaa !46
  %21 = zext i8 %20 to i32
  br label %bytestream2_get_byte.exit53.us

22:                                               ; preds = %.lr.ph62.split.us
  store ptr %12, ptr %9, align 8, !tbaa !56
  br label %bytestream2_get_byte.exit53.us

bytestream2_get_byte.exit53.us:                   ; preds = %22, %18
  %.0.i52.us = phi i32 [ 0, %22 ], [ %21, %18 ]
  %23 = trunc nuw i32 %.0.i52.us to i8
  %24 = getelementptr inbounds nuw i8, ptr %.04959.us, i64 1
  store i8 %23, ptr %.04959.us, align 1, !tbaa !46
  store i8 %23, ptr %24, align 1, !tbaa !46
  %.15054.us = getelementptr inbounds nuw i8, ptr %.04959.us, i64 2
  br label %25

25:                                               ; preds = %bytestream2_get_byte.exit53.us, %bytestream2_get_byte.exit.us
  %.15058.us = phi ptr [ %.15054.us, %bytestream2_get_byte.exit53.us ], [ %.150.us, %bytestream2_get_byte.exit.us ]
  %.057.us = phi i32 [ 2, %bytestream2_get_byte.exit53.us ], [ %46, %bytestream2_get_byte.exit.us ]
  %.04856.us = phi i32 [ %.0.i52.us, %bytestream2_get_byte.exit53.us ], [ %40, %bytestream2_get_byte.exit.us ]
  %.049.pn55.us = phi ptr [ %.04959.us, %bytestream2_get_byte.exit53.us ], [ %.15058.us, %bytestream2_get_byte.exit.us ]
  %26 = load ptr, ptr %10, align 8, !tbaa !58
  %27 = load ptr, ptr %9, align 8, !tbaa !56
  %28 = ptrtoint ptr %26 to i64
  %29 = ptrtoint ptr %27 to i64
  %30 = sub i64 %28, %29
  %31 = icmp slt i64 %30, 1
  br i1 %31, label %36, label %32

32:                                               ; preds = %25
  %33 = getelementptr inbounds nuw i8, ptr %27, i64 1
  store ptr %33, ptr %9, align 8, !tbaa !60
  %34 = load i8, ptr %27, align 1, !tbaa !46
  %35 = zext i8 %34 to i32
  br label %bytestream2_get_byte.exit.us

36:                                               ; preds = %25
  store ptr %26, ptr %9, align 8, !tbaa !56
  br label %bytestream2_get_byte.exit.us

bytestream2_get_byte.exit.us:                     ; preds = %36, %32
  %.0.i.us = phi i32 [ 0, %36 ], [ %35, %32 ]
  %37 = trunc nuw i32 %.0.i.us to i8
  %38 = shl nuw i32 %.04856.us, 8
  %39 = and i32 %38, 16776960
  %40 = or disjoint i32 %.0.i.us, %39
  %41 = and i32 %40, 65535
  %42 = zext nneg i32 %41 to i64
  %43 = getelementptr inbounds nuw i8, ptr %6, i64 %42
  %44 = load i8, ptr %43, align 1, !tbaa !46
  %45 = getelementptr inbounds nuw i8, ptr %.049.pn55.us, i64 3
  store i8 %44, ptr %.15058.us, align 1, !tbaa !46
  store i8 %37, ptr %45, align 1, !tbaa !46
  %46 = add nuw nsw i32 %.057.us, 2
  %.150.us = getelementptr inbounds nuw i8, ptr %.15058.us, i64 2
  %47 = icmp samesign ult i32 %46, %2
  br i1 %47, label %25, label %._crit_edge.us, !llvm.loop !172

._crit_edge.us:                                   ; preds = %bytestream2_get_byte.exit.us
  %48 = getelementptr inbounds i8, ptr %.150.us, i64 %4
  %49 = add nuw nsw i32 %.04660.us, 2
  %50 = icmp samesign ult i32 %49, %3
  br i1 %50, label %.lr.ph62.split.us, label %._crit_edge63, !llvm.loop !173

.lr.ph62.split:                                   ; preds = %.lr.ph62, %bytestream2_get_byte.exit53
  %.04660 = phi i32 [ %63, %bytestream2_get_byte.exit53 ], [ 0, %.lr.ph62 ]
  %.04959 = phi ptr [ %62, %bytestream2_get_byte.exit53 ], [ %7, %.lr.ph62 ]
  %51 = load ptr, ptr %10, align 8, !tbaa !58
  %52 = load ptr, ptr %9, align 8, !tbaa !56
  %53 = ptrtoint ptr %51 to i64
  %54 = ptrtoint ptr %52 to i64
  %55 = sub i64 %53, %54
  %56 = icmp slt i64 %55, 1
  br i1 %56, label %57, label %58

57:                                               ; preds = %.lr.ph62.split
  store ptr %51, ptr %9, align 8, !tbaa !56
  br label %bytestream2_get_byte.exit53

58:                                               ; preds = %.lr.ph62.split
  %59 = getelementptr inbounds nuw i8, ptr %52, i64 1
  store ptr %59, ptr %9, align 8, !tbaa !60
  %60 = load i8, ptr %52, align 1, !tbaa !46
  br label %bytestream2_get_byte.exit53

bytestream2_get_byte.exit53:                      ; preds = %57, %58
  %.0.i52 = phi i8 [ 0, %57 ], [ %60, %58 ]
  %61 = getelementptr inbounds nuw i8, ptr %.04959, i64 1
  store i8 %.0.i52, ptr %.04959, align 1, !tbaa !46
  store i8 %.0.i52, ptr %61, align 1, !tbaa !46
  %.15054 = getelementptr inbounds nuw i8, ptr %.04959, i64 2
  %62 = getelementptr inbounds i8, ptr %.15054, i64 %4
  %63 = add nuw nsw i32 %.04660, 2
  %64 = icmp samesign ult i32 %63, %3
  br i1 %64, label %.lr.ph62.split, label %._crit_edge63, !llvm.loop !173

._crit_edge63:                                    ; preds = %bytestream2_get_byte.exit53, %._crit_edge.us
  %65 = zext nneg i32 %2 to i64
  tail call void @llvm.memcpy.p0.p0.i64(ptr align 1 %1, ptr align 1 %7, i64 %65, i1 false)
  %66 = add nsw i32 %3, -1
  %67 = icmp samesign ugt i32 %3, 3
  br i1 %67, label %.lr.ph69, label %._crit_edge70

.lr.ph69:                                         ; preds = %._crit_edge63
  %.not73 = icmp eq i32 %2, 0
  %68 = sub i64 0, %4
  br i1 %.not73, label %._crit_edge70, label %.lr.ph.us

.lr.ph.us:                                        ; preds = %.lr.ph69, %._crit_edge.us71
  %.14767.us = phi i32 [ %82, %._crit_edge.us71 ], [ 2, %.lr.ph69 ]
  %.pn66.us = phi ptr [ %80, %._crit_edge.us71 ], [ %7, %.lr.ph69 ]
  %.2.us = getelementptr inbounds i8, ptr %.pn66.us, i64 %4
  br label %69

69:                                               ; preds = %.lr.ph.us, %69
  %.165.us = phi i32 [ 0, %.lr.ph.us ], [ %81, %69 ]
  %.364.us = phi ptr [ %.2.us, %.lr.ph.us ], [ %80, %69 ]
  %70 = getelementptr inbounds i8, ptr %.364.us, i64 %68
  %71 = load i8, ptr %70, align 1, !tbaa !46
  %72 = zext i8 %71 to i64
  %73 = shl nuw nsw i64 %72, 8
  %74 = getelementptr inbounds i8, ptr %.364.us, i64 %4
  %75 = load i8, ptr %74, align 1, !tbaa !46
  %76 = zext i8 %75 to i64
  %77 = getelementptr inbounds nuw i8, ptr %6, i64 %73
  %78 = getelementptr inbounds nuw i8, ptr %77, i64 %76
  %79 = load i8, ptr %78, align 1, !tbaa !46
  %80 = getelementptr inbounds nuw i8, ptr %.364.us, i64 1
  store i8 %79, ptr %.364.us, align 1, !tbaa !46
  %81 = add nuw nsw i32 %.165.us, 1
  %exitcond.not = icmp eq i32 %81, %2
  br i1 %exitcond.not, label %._crit_edge.us71, label %69, !llvm.loop !174

._crit_edge.us71:                                 ; preds = %69
  %82 = add nuw nsw i32 %.14767.us, 2
  %83 = icmp slt i32 %82, %66
  br i1 %83, label %.lr.ph.us, label %._crit_edge70, !llvm.loop !175

._crit_edge70:                                    ; preds = %._crit_edge.us71, %.lr.ph69, %._crit_edge63.thread, %._crit_edge63
  ret void
}